; Function Attrs: mustprogress uwtable
define void @_ZN3nix10SQLiteStmt3Use6getStrB5cxx11Ei(ptr dead_on_unwind noalias writable sret(%"class.std::__cxx11::basic_string") align 8 %0, ptr nocapture noundef nonnull readonly align 8 dereferenceable(12) %1, i32 noundef %2) local_unnamed_addr #2 align 2 personality ptr @__gxx_personality_v0 {
  %4 = alloca %"class.std::allocator.4", align 1
  %5 = load ptr, ptr %1, align 8
  %6 = getelementptr inbounds i8, ptr %5, i64 8
  %7 = load ptr, ptr %6, align 8
  %8 = tail call ptr @sqlite3_column_text(ptr noundef %7, i32 noundef %2)
  call void @_ZNSaIcEC1Ev(ptr noundef nonnull align 1 dereferenceable(1) %4) #22
  invoke void @_ZNSt7__cxx1112basic_stringIcSt11char_traitsIcESaIcEEC2IS3_EEPKcRKS3_(ptr noundef nonnull align 8 dereferenceable(32) %0, ptr noundef %8, ptr noundef nonnull align 1 dereferenceable(1) %4)
          to label %9 unwind label %10

9:                                                ; preds = %3
  call void @_ZNSaIcED1Ev(ptr noundef nonnull align 1 dereferenceable(1) %4) #22
  ret void

10:                                               ; preds = %3
  %11 = landingpad { ptr, i32 }
          cleanup
  call void @_ZNSaIcED1Ev(ptr noundef nonnull align 1 dereferenceable(1) %4) #22
  resume { ptr, i32 } %11
}